target datalayout = "e-m:e-p270:32:32-p271:32:32-p272:64:64-i64:64-i128:128-f80:128-n8:16:32:64-S128"
target triple = "x86_64-pc-linux-gnu"

%"class.clang::CodeGen::ABIInfo" = type <{ ptr, ptr, i32, [4 x i8] }>
%"class.clang::CodeGen::CodeGenTypes" = type { ptr, ptr, ptr, ptr, %"class.llvm::DenseMap", %"class.llvm::DenseMap.0", %"class.llvm::DenseMap.3", %"class.llvm::FoldingSet", %"class.llvm::SmallPtrSet", i8, i8, [6 x i8], %"class.llvm::DenseMap.6", %"class.llvm::DenseMap.6" }
%"class.llvm::DenseMap" = type <{ ptr, i32, i32, i32, [4 x i8] }>
%"class.llvm::DenseMap.0" = type <{ ptr, i32, i32, i32, [4 x i8] }>
%"class.llvm::DenseMap.3" = type <{ ptr, i32, i32, i32, [4 x i8] }>
%"class.llvm::FoldingSet" = type { %"class.llvm::FoldingSetImpl" }
%"class.llvm::FoldingSetImpl" = type { %"class.llvm::FoldingSetBase" }
%"class.llvm::FoldingSetBase" = type { ptr, i32, i32 }
%"class.llvm::SmallPtrSet" = type { %"class.llvm::SmallPtrSetImpl.base", [4 x ptr] }
%"class.llvm::SmallPtrSetImpl.base" = type { %"class.llvm::SmallPtrSetImplBase.base" }
%"class.llvm::SmallPtrSetImplBase.base" = type <{ ptr, ptr, i32, i32, i32 }>
%"class.llvm::DenseMap.6" = type <{ ptr, i32, i32, i32, [4 x i8] }>
%"class.clang::CharUnits" = type { i64 }
%"class.clang::QualType" = type { %"class.llvm::PointerIntPair" }
%"class.llvm::PointerIntPair" = type { %"struct.llvm::detail::PunnedPointer" }
%"struct.llvm::detail::PunnedPointer" = type { [8 x i8] }
%"class.clang::CodeGen::ABIArgInfo" = type <{ ptr, %union.anon.488, %union.anon.489, i8, i16, [5 x i8] }>
%union.anon.488 = type { ptr }
%union.anon.489 = type { %"struct.clang::CodeGen::ABIArgInfo::DirectAttrInfo" }
%"struct.clang::CodeGen::ABIArgInfo::DirectAttrInfo" = type { i32, i32 }
%"struct.clang::CodeGen::ABIArgInfo::IndirectAttrInfo" = type { i32, i32 }

; Function Attrs: mustprogress nounwind uwtable
define linkonce_odr hidden noundef i64 @_ZNK5clang9CharUnits11getQuantityEv(ptr noundef nonnull align 8 dereferenceable(8) %0) #0 comdat align 2 {
  %2 = alloca ptr, align 8
  store ptr %0, ptr %2, align 8
  %3 = load ptr, ptr %2, align 8
  %4 = getelementptr inbounds nuw %"class.clang::CharUnits", ptr %3, i32 0, i32 0
  %5 = load i64, ptr %4, align 8
  ret i64 %5
}

; Function Attrs: mustprogress nounwind uwtable
define linkonce_odr hidden void @_ZN5clang7CodeGen10ABIArgInfo14setPaddingTypeEPN4llvm4TypeE(ptr noundef nonnull align 8 dereferenceable(27) %0, ptr noundef %1) #0 comdat align 2 {
  %3 = alloca ptr, align 8
  %4 = alloca ptr, align 8
  store ptr %0, ptr %3, align 8
  store ptr %1, ptr %4, align 8
  %5 = load ptr, ptr %3, align 8
  %6 = load ptr, ptr %4, align 8
  %7 = getelementptr inbounds nuw %"class.clang::CodeGen::ABIArgInfo", ptr %5, i32 0, i32 1
  store ptr %6, ptr %7, align 8
  ret void
}

; Function Attrs: mustprogress nounwind uwtable
define linkonce_odr hidden void @_ZN5clang7CodeGen10ABIArgInfo16setSRetAfterThisEb(ptr noundef nonnull align 8 dereferenceable(27) %0, i1 noundef zeroext %1) #0 comdat align 2 {
  %3 = alloca ptr, align 8
  %4 = alloca i8, align 1
  store ptr %0, ptr %3, align 8
  %5 = zext i1 %1 to i8
  store i8 %5, ptr %4, align 1
  %6 = load ptr, ptr %3, align 8
  %7 = load i8, ptr %4, align 1
  %8 = trunc i8 %7 to i1
  %9 = getelementptr inbounds nuw %"class.clang::CodeGen::ABIArgInfo", ptr %6, i32 0, i32 4
  %10 = zext i1 %8 to i16
  %11 = load i16, ptr %9, align 1
  %12 = shl i16 %10, 5
  %13 = and i16 %11, -33
  %14 = or i16 %13, %12
  store i16 %14, ptr %9, align 1
  ret void
}

; Function Attrs: mustprogress nounwind uwtable
define linkonce_odr hidden void @_ZN5clang7CodeGen10ABIArgInfo18setIndirectRealignEb(ptr noundef nonnull align 8 dereferenceable(27) %0, i1 noundef zeroext %1) #0 comdat align 2 {
  %3 = alloca ptr, align 8
  %4 = alloca i8, align 1
  store ptr %0, ptr %3, align 8
  %5 = zext i1 %1 to i8
  store i8 %5, ptr %4, align 1
  %6 = load ptr, ptr %3, align 8
  %7 = load i8, ptr %4, align 1
  %8 = trunc i8 %7 to i1
  %9 = getelementptr inbounds nuw %"class.clang::CodeGen::ABIArgInfo", ptr %6, i32 0, i32 4
  %10 = zext i1 %8 to i16
  %11 = load i16, ptr %9, align 1
  %12 = shl i16 %10, 4
  %13 = and i16 %11, -17
  %14 = or i16 %13, %12
  store i16 %14, ptr %9, align 1
  ret void
}

; Function Attrs: mustprogress nounwind uwtable
define linkonce_odr hidden void @_ZN5clang7CodeGen10ABIArgInfo16setIndirectByValEb(ptr noundef nonnull align 8 dereferenceable(27) %0, i1 noundef zeroext %1) #0 comdat align 2 {
  %3 = alloca ptr, align 8
  %4 = alloca i8, align 1
  store ptr %0, ptr %3, align 8
  %5 = zext i1 %1 to i8
  store i8 %5, ptr %4, align 1
  %6 = load ptr, ptr %3, align 8
  %7 = load i8, ptr %4, align 1
  %8 = trunc i8 %7 to i1
  %9 = getelementptr inbounds nuw %"class.clang::CodeGen::ABIArgInfo", ptr %6, i32 0, i32 4
  %10 = zext i1 %8 to i16
  %11 = load i16, ptr %9, align 1
  %12 = shl i16 %10, 3
  %13 = and i16 %11, -9
  %14 = or i16 %13, %12
  store i16 %14, ptr %9, align 1
  ret void
}

; Function Attrs: mustprogress nounwind uwtable
define linkonce_odr hidden void @_ZN5clang7CodeGen10ABIArgInfo16setIndirectAlignENS_9CharUnitsE(ptr noundef nonnull align 8 dereferenceable(27) %0, i64 %1) #0 comdat align 2 {
  %3 = alloca %"class.clang::CharUnits", align 8
  %4 = alloca ptr, align 8
  %5 = getelementptr inbounds nuw %"class.clang::CharUnits", ptr %3, i32 0, i32 0
  store i64 %1, ptr %5, align 8
  store ptr %0, ptr %4, align 8
  %6 = load ptr, ptr %4, align 8
  %7 = call noundef i64 @_ZNK5clang9CharUnits11getQuantityEv(ptr noundef nonnull align 8 dereferenceable(8) %3)
  %8 = trunc i64 %7 to i32
  %9 = getelementptr inbounds nuw %"class.clang::CodeGen::ABIArgInfo", ptr %6, i32 0, i32 2
  %10 = getelementptr inbounds nuw %"struct.clang::CodeGen::ABIArgInfo::IndirectAttrInfo", ptr %9, i32 0, i32 0
  store i32 %8, ptr %10, align 8
  ret void
}

; Function Attrs: mustprogress nounwind uwtable
define linkonce_odr hidden void @_ZN5clang7CodeGen10ABIArgInfoC2ENS1_4KindE(ptr noundef nonnull align 8 dereferenceable(27) %0, i8 noundef zeroext %1) unnamed_addr #0 comdat align 2 {
  %3 = alloca ptr, align 8
  %4 = alloca i8, align 1
  store ptr %0, ptr %3, align 8
  store i8 %1, ptr %4, align 1
  %5 = load ptr, ptr %3, align 8
  %6 = getelementptr inbounds nuw %"class.clang::CodeGen::ABIArgInfo", ptr %5, i32 0, i32 0
  store ptr null, ptr %6, align 8
  %7 = getelementptr inbounds nuw %"class.clang::CodeGen::ABIArgInfo", ptr %5, i32 0, i32 1
  store ptr null, ptr %7, align 8
  %8 = getelementptr inbounds nuw %"class.clang::CodeGen::ABIArgInfo", ptr %5, i32 0, i32 2
  %9 = getelementptr inbounds nuw %"struct.clang::CodeGen::ABIArgInfo::DirectAttrInfo", ptr %8, i32 0, i32 0
  store i32 0, ptr %9, align 8
  %10 = getelementptr inbounds nuw %"struct.clang::CodeGen::ABIArgInfo::DirectAttrInfo", ptr %8, i32 0, i32 1
  store i32 0, ptr %10, align 4
  %11 = getelementptr inbounds nuw %"class.clang::CodeGen::ABIArgInfo", ptr %5, i32 0, i32 3
  %12 = load i8, ptr %4, align 1
  store i8 %12, ptr %11, align 8
  %13 = getelementptr inbounds nuw %"class.clang::CodeGen::ABIArgInfo", ptr %5, i32 0, i32 4
  %14 = load i16, ptr %13, align 1
  %15 = and i16 %14, -2
  %16 = or i16 %15, 0
  store i16 %16, ptr %13, align 1
  %17 = getelementptr inbounds nuw %"class.clang::CodeGen::ABIArgInfo", ptr %5, i32 0, i32 4
  %18 = load i16, ptr %17, align 1
  %19 = and i16 %18, -3
  %20 = or i16 %19, 0
  store i16 %20, ptr %17, align 1
  %21 = getelementptr inbounds nuw %"class.clang::CodeGen::ABIArgInfo", ptr %5, i32 0, i32 4
  %22 = load i16, ptr %21, align 1
  %23 = and i16 %22, -5
  %24 = or i16 %23, 0
  store i16 %24, ptr %21, align 1
  %25 = getelementptr inbounds nuw %"class.clang::CodeGen::ABIArgInfo", ptr %5, i32 0, i32 4
  %26 = load i16, ptr %25, align 1
  %27 = and i16 %26, -9
  %28 = or i16 %27, 0
  store i16 %28, ptr %25, align 1
  %29 = getelementptr inbounds nuw %"class.clang::CodeGen::ABIArgInfo", ptr %5, i32 0, i32 4
  %30 = load i16, ptr %29, align 1
  %31 = and i16 %30, -17
  %32 = or i16 %31, 0
  store i16 %32, ptr %29, align 1
  %33 = getelementptr inbounds nuw %"class.clang::CodeGen::ABIArgInfo", ptr %5, i32 0, i32 4
  %34 = load i16, ptr %33, align 1
  %35 = and i16 %34, -33
  %36 = or i16 %35, 0
  store i16 %36, ptr %33, align 1
  %37 = getelementptr inbounds nuw %"class.clang::CodeGen::ABIArgInfo", ptr %5, i32 0, i32 4
  %38 = load i16, ptr %37, align 1
  %39 = and i16 %38, -65
  %40 = or i16 %39, 0
  store i16 %40, ptr %37, align 1
  %41 = getelementptr inbounds nuw %"class.clang::CodeGen::ABIArgInfo", ptr %5, i32 0, i32 4
  %42 = load i16, ptr %41, align 1
  %43 = and i16 %42, -129
  %44 = or i16 %43, 0
  store i16 %44, ptr %41, align 1
  %45 = getelementptr inbounds nuw %"class.clang::CodeGen::ABIArgInfo", ptr %5, i32 0, i32 4
  %46 = load i16, ptr %45, align 1
  %47 = and i16 %46, -257
  %48 = or i16 %47, 0
  store i16 %48, ptr %45, align 1
  ret void
}

; Function Attrs: mustprogress nounwind uwtable
define linkonce_odr hidden void @_ZN5clang7CodeGen10ABIArgInfo8setInRegEb(ptr noundef nonnull align 8 dereferenceable(27) %0, i1 noundef zeroext %1) #0 comdat align 2 {
  %3 = alloca ptr, align 8
  %4 = alloca i8, align 1
  store ptr %0, ptr %3, align 8
  %5 = zext i1 %1 to i8
  store i8 %5, ptr %4, align 1
  %6 = load ptr, ptr %3, align 8
  %7 = load i8, ptr %4, align 1
  %8 = trunc i8 %7 to i1
  %9 = getelementptr inbounds nuw %"class.clang::CodeGen::ABIArgInfo", ptr %6, i32 0, i32 4
  %10 = zext i1 %8 to i16
  %11 = load i16, ptr %9, align 1
  %12 = shl i16 %10, 6
  %13 = and i16 %11, -65
  %14 = or i16 %13, %12
  store i16 %14, ptr %9, align 1
  ret void
}

; Function Attrs: mustprogress nounwind uwtable
define linkonce_odr hidden void @_ZN5clang7CodeGen10ABIArgInfo11getIndirectENS_9CharUnitsEbbPN4llvm4TypeE(ptr dead_on_unwind noalias writable sret(%"class.clang::CodeGen::ABIArgInfo") align 8 %0, i64 %1, i1 noundef zeroext %2, i1 noundef zeroext %3, ptr noundef %4) #0 comdat align 2 {
  %6 = alloca %"class.clang::CharUnits", align 8
  %7 = alloca i8, align 1
  %8 = alloca i8, align 1
  %9 = alloca ptr, align 8
  %10 = alloca %"class.clang::CharUnits", align 8
  %11 = getelementptr inbounds nuw %"class.clang::CharUnits", ptr %6, i32 0, i32 0
  store i64 %1, ptr %11, align 8
  %12 = zext i1 %2 to i8
  store i8 %12, ptr %7, align 1
  %13 = zext i1 %3 to i8
  store i8 %13, ptr %8, align 1
  store ptr %4, ptr %9, align 8
  call void @_ZN5clang7CodeGen10ABIArgInfoC2ENS1_4KindE(ptr noundef nonnull align 8 dereferenceable(27) %0, i8 noundef zeroext 2)
  call void @llvm.memcpy.p0.p0.i64(ptr align 8 %10, ptr align 8 %6, i64 8, i1 false)
  %14 = getelementptr inbounds nuw %"class.clang::CharUnits", ptr %10, i32 0, i32 0
  %15 = load i64, ptr %14, align 8
  call void @_ZN5clang7CodeGen10ABIArgInfo16setIndirectAlignENS_9CharUnitsE(ptr noundef nonnull align 8 dereferenceable(27) %0, i64 %15)
  %16 = load i8, ptr %7, align 1
  %17 = trunc i8 %16 to i1
  call void @_ZN5clang7CodeGen10ABIArgInfo16setIndirectByValEb(ptr noundef nonnull align 8 dereferenceable(27) %0, i1 noundef zeroext %17)
  %18 = load i8, ptr %8, align 1
  %19 = trunc i8 %18 to i1
  call void @_ZN5clang7CodeGen10ABIArgInfo18setIndirectRealignEb(ptr noundef nonnull align 8 dereferenceable(27) %0, i1 noundef zeroext %19)
  call void @_ZN5clang7CodeGen10ABIArgInfo16setSRetAfterThisEb(ptr noundef nonnull align 8 dereferenceable(27) %0, i1 noundef zeroext false)
  %20 = load ptr, ptr %9, align 8
  call void @_ZN5clang7CodeGen10ABIArgInfo14setPaddingTypeEPN4llvm4TypeE(ptr noundef nonnull align 8 dereferenceable(27) %0, ptr noundef %20)
  ret void
}

; Function Attrs: mustprogress nounwind uwtable
define linkonce_odr hidden noundef nonnull align 8 dereferenceable(23096) ptr @_ZNK5clang7CodeGen12CodeGenTypes10getContextEv(ptr noundef nonnull align 8 dereferenceable(240) %0) #0 comdat align 2 {
  %2 = alloca ptr, align 8
  store ptr %0, ptr %2, align 8
  %3 = load ptr, ptr %2, align 8
  %4 = getelementptr inbounds nuw %"class.clang::CodeGen::CodeGenTypes", ptr %3, i32 0, i32 1
  %5 = load ptr, ptr %4, align 8
  ret ptr %5
}

; Function Attrs: mustprogress nounwind uwtable
define linkonce_odr hidden void @_ZN5clang7CodeGen10ABIArgInfo16getIndirectInRegENS_9CharUnitsEbb(ptr dead_on_unwind noalias writable sret(%"class.clang::CodeGen::ABIArgInfo") align 8 %0, i64 %1, i1 noundef zeroext %2, i1 noundef zeroext %3) #0 comdat align 2 {
  %5 = alloca %"class.clang::CharUnits", align 8
  %6 = alloca i8, align 1
  %7 = alloca i8, align 1
  %8 = alloca %"class.clang::CharUnits", align 8
  %9 = getelementptr inbounds nuw %"class.clang::CharUnits", ptr %5, i32 0, i32 0
  store i64 %1, ptr %9, align 8
  %10 = zext i1 %2 to i8
  store i8 %10, ptr %6, align 1
  %11 = zext i1 %3 to i8
  store i8 %11, ptr %7, align 1
  call void @llvm.memcpy.p0.p0.i64(ptr align 8 %8, ptr align 8 %5, i64 8, i1 false)
  %12 = load i8, ptr %6, align 1
  %13 = trunc i8 %12 to i1
  %14 = load i8, ptr %7, align 1
  %15 = trunc i8 %14 to i1
  %16 = getelementptr inbounds nuw %"class.clang::CharUnits", ptr %8, i32 0, i32 0
  %17 = load i64, ptr %16, align 8
  call void @_ZN5clang7CodeGen10ABIArgInfo11getIndirectENS_9CharUnitsEbbPN4llvm4TypeE(ptr dead_on_unwind writable sret(%"class.clang::CodeGen::ABIArgInfo") align 8 %0, i64 %17, i1 noundef zeroext %13, i1 noundef zeroext %15, ptr noundef null)
  call void @_ZN5clang7CodeGen10ABIArgInfo8setInRegEb(ptr noundef nonnull align 8 dereferenceable(27) %0, i1 noundef zeroext true)
  ret void
}

; Function Attrs: mustprogress nounwind uwtable
define dso_local noundef nonnull align 8 dereferenceable(23096) ptr @_ZNK5clang7CodeGen7ABIInfo10getContextEv(ptr noundef nonnull align 8 dereferenceable(20) %0) #0 align 2 {
  %2 = alloca ptr, align 8
  store ptr %0, ptr %2, align 8
  %3 = load ptr, ptr %2, align 8
  %4 = getelementptr inbounds nuw %"class.clang::CodeGen::ABIInfo", ptr %3, i32 0, i32 1
  %5 = load ptr, ptr %4, align 8
  %6 = call noundef nonnull align 8 dereferenceable(23096) ptr @_ZNK5clang7CodeGen12CodeGenTypes10getContextEv(ptr noundef nonnull align 8 dereferenceable(240) %5)
  ret ptr %6
}

; Function Attrs: mustprogress nounwind uwtable
define dso_local void @_ZNK5clang7CodeGen7ABIInfo28getNaturalAlignIndirectInRegENS_8QualTypeEb(ptr dead_on_unwind noalias writable sret(%"class.clang::CodeGen::ABIArgInfo") align 8 %0, ptr noundef nonnull align 8 dereferenceable(20) %1, i64 %2, i1 noundef zeroext %3) #0 align 2 {
  %5 = alloca %"class.clang::QualType", align 8
  %6 = alloca ptr, align 8
  %7 = alloca i8, align 1
  %8 = alloca %"class.clang::CharUnits", align 8
  %9 = alloca %"class.clang::QualType", align 8
  %10 = getelementptr inbounds nuw %"class.clang::QualType", ptr %5, i32 0, i32 0
  %11 = getelementptr inbounds nuw %"class.llvm::PointerIntPair", ptr %10, i32 0, i32 0
  %12 = getelementptr inbounds nuw %"struct.llvm::detail::PunnedPointer", ptr %11, i32 0, i32 0
  store i64 %2, ptr %12, align 8
  store ptr %1, ptr %6, align 8
  %13 = zext i1 %3 to i8
  store i8 %13, ptr %7, align 1
  %14 = load ptr, ptr %6, align 8
  %15 = call noundef nonnull align 8 dereferenceable(23096) ptr @_ZNK5clang7CodeGen7ABIInfo10getContextEv(ptr noundef nonnull align 8 dereferenceable(20) %14)
  call void @llvm.memcpy.p0.p0.i64(ptr align 8 %9, ptr align 8 %5, i64 8, i1 false)
  %16 = getelementptr inbounds nuw %"class.clang::QualType", ptr %9, i32 0, i32 0
  %17 = getelementptr inbounds nuw %"class.llvm::PointerIntPair", ptr %16, i32 0, i32 0
  %18 = getelementptr inbounds nuw %"struct.llvm::detail::PunnedPointer", ptr %17, i32 0, i32 0
  %19 = load i64, ptr %18, align 8
  %20 = call i64 @_ZNK5clang10ASTContext19getTypeAlignInCharsENS_8QualTypeE(ptr noundef nonnull align 8 dereferenceable(23096) %15, i64 %19)
  %21 = getelementptr inbounds nuw %"class.clang::CharUnits", ptr %8, i32 0, i32 0
  store i64 %20, ptr %21, align 8
  %22 = load i8, ptr %7, align 1
  %23 = trunc i8 %22 to i1
  %24 = getelementptr inbounds nuw %"class.clang::CharUnits", ptr %8, i32 0, i32 0
  %25 = load i64, ptr %24, align 8
  call void @_ZN5clang7CodeGen10ABIArgInfo16getIndirectInRegENS_9CharUnitsEbb(ptr dead_on_unwind writable sret(%"class.clang::CodeGen::ABIArgInfo") align 8 %0, i64 %25, i1 noundef zeroext false, i1 noundef zeroext %23)
  ret void
}