; Function Attrs: mustprogress nounwind uwtable
define dso_local void @_ZNK5clang7CodeGen7ABIInfo28getNaturalAlignIndirectInRegENS_8QualTypeEb(ptr dead_on_unwind noalias nocapture writable sret(%"class.clang::CodeGen::ABIArgInfo") align 8 %0, ptr nocapture noundef nonnull readonly align 8 dereferenceable(20) %1, i64 %2, i1 noundef zeroext %3) local_unnamed_addr #3 align 2 {
  %5 = getelementptr inbounds nuw i8, ptr %1, i64 8
  %6 = load ptr, ptr %5, align 8
  %7 = getelementptr inbounds nuw i8, ptr %6, i64 8
  %8 = load ptr, ptr %7, align 8
  %9 = tail call i64 @_ZNK5clang10ASTContext19getTypeAlignInCharsENS_8QualTypeE(ptr noundef nonnull align 8 dereferenceable(23096) %8, i64 %2) #17
  %10 = getelementptr inbounds nuw i8, ptr %0, i64 24
  tail call void @llvm.memset.p0.i64(ptr noundef nonnull align 8 dereferenceable(24) %0, i8 0, i64 24, i1 false), !alias.scope !15
  store i8 2, ptr %10, align 8, !alias.scope !15
  %11 = getelementptr inbounds nuw i8, ptr %0, i64 25
  %12 = load i16, ptr %11, align 1, !alias.scope !15
  %13 = and i16 %12, -512
  %14 = trunc i64 %9 to i32
  %15 = getelementptr inbounds nuw i8, ptr %0, i64 16
  store i32 %14, ptr %15, align 8, !alias.scope !15
  %16 = select i1 %3, i16 80, i16 64
  %17 = or disjoint i16 %16, %13
  store i16 %17, ptr %11, align 1, !alias.scope !20
  ret void
}